Certificate:
    Data:
        Version: 3 (0x2)
        Serial Number: 16830693270973547507 (0xe992a25b6bef83f3)
    Signature Algorithm: sha1WithRSAEncryption
        Issuer: C=US, ST=Illinois, O=Argonne, OU=waggle, CN=my_name
        Validity
            Not Before: Jul 16 16:11:02 2014 GMT
            Not After : Jul 16 16:11:02 2015 GMT
        Subject: C=US, ST=Illinois, O=Argonne, OU=waggle, CN=my_name
        Subject Public Key Info:
            Public Key Algorithm: rsaEncryption
                Public-Key: (2048 bit)
                Modulus:
                    00:bd:ec:1d:12:0b:0a:e9:78:e8:5f:0a:a6:d1:5e:
                    36:f2:8d:9a:ac:e2:f7:0c:37:bf:3c:30:b5:67:66:
                    b6:67:1f:d8:4f:c2:52:d8:0b:59:f8:86:41:31:86:
                    00:ba:3b:83:d8:ee:40:7b:61:55:00:ff:7f:d8:a3:
                    55:8c:5f:73:4e:cd:71:f0:91:3a:18:2a:f2:43:aa:
                    38:aa:11:0f:09:4e:b5:f8:68:81:36:b2:aa:4c:9a:
                    57:30:b4:1c:31:d8:a9:46:fd:ed:87:75:e2:14:a1:
                    86:ab:0c:89:bc:df:b2:32:27:d5:77:28:d1:72:d9:
                    24:71:eb:fc:a7:26:22:16:7d:fd:38:ac:61:10:32:
                    81:45:7f:06:00:13:05:6d:54:8e:6e:31:d1:62:97:
                    4d:0c:cb:f5:62:cf:c4:d1:75:92:f3:4d:70:04:a2:
                    61:a3:b2:42:95:25:75:e7:23:1f:66:8c:58:c8:8b:
                    49:6f:0b:53:e0:5d:6f:0c:aa:46:82:1e:5e:15:6c:
                    61:a4:56:55:35:fa:aa:f8:b0:47:96:9d:69:07:24:
                    b7:84:cd:a8:65:c9:22:c6:40:ca:72:16:08:7b:a2:
                    36:81:51:de:0d:cf:30:7b:48:8b:87:d0:c5:bc:75:
                    c3:c4:ce:16:73:93:e1:f4:16:15:23:2f:4f:6d:0f:
                    44:a5
                Exponent: 65537 (0x10001)
        X509v3 extensions:
            X509v3 Subject Key Identifier: 
                86:7E:55:84:E4:B7:6F:42:64:F6:49:F7:55:E1:78:EF:1E:26:E7:20
            X509v3 Authority Key Identifier: 
                keyid:86:7E:55:84:E4:B7:6F:42:64:F6:49:F7:55:E1:78:EF:1E:26:E7:20
                DirName:/C=US/ST=Illinois/O=Argonne/OU=waggle/CN=my_name
                serial:E9:92:A2:5B:6B:EF:83:F3

            X509v3 Basic Constraints: 
                CA:TRUE
            X509v3 Subject Alternative Name: 
                email:me@argonne
    Signature Algorithm: sha1WithRSAEncryption
         1d:23:de:3a:c1:d0:af:d2:04:d6:dd:de:c9:bc:78:7f:22:b4:
         b9:6f:36:55:06:5d:34:5b:31:82:98:d2:dc:c7:c2:d8:19:4b:
         b9:be:48:d5:74:c9:d8:5d:07:fe:e5:a9:33:3f:61:6b:02:0e:
         bc:25:b2:02:b2:39:c8:91:7b:6f:69:04:09:01:19:13:b7:88:
         d3:42:9d:b9:7b:16:2e:93:be:d6:b8:86:6b:82:d0:7c:5a:11:
         c9:07:39:8c:3f:63:61:b3:20:e3:d9:8d:1d:ec:b8:92:5c:d4:
         9e:eb:36:f0:f7:4c:f5:db:52:32:6f:7f:91:55:be:bf:8c:8f:
         8c:93:84:1c:aa:13:cc:53:2f:52:32:cb:c9:d4:69:5d:4a:d2:
         66:6d:13:e6:cb:6a:72:0d:1d:a2:2b:56:89:c2:e0:6f:18:f3:
         2c:1f:8d:b6:47:08:50:39:7a:9c:e2:68:0b:96:77:ef:18:28:
         71:44:85:7c:a1:8b:e9:57:5f:93:60:29:69:ee:81:bf:bb:c1:
         ed:52:83:49:54:41:96:b4:fa:51:31:51:e0:3d:48:51:fa:86:
         7c:4d:76:31:59:1f:cf:dc:09:c1:76:88:6f:f8:17:cc:6f:05:
         e2:4c:23:36:d6:a1:d5:31:c0:20:23:05:40:e7:af:e3:9e:01:
         90:72:ab:03
-----BEGIN CERTIFICATE-----
MIID/TCCAuWgAwIBAgIJAOmSoltr74PzMA0GCSqGSIb3DQEBBQUAMFUxCzAJBgNV
BAYTAlVTMREwDwYDVQQIEwhJbGxpbm9pczEQMA4GA1UEChMHQXJnb25uZTEPMA0G
A1UECxMGd2FnZ2xlMRAwDgYDVQQDFAdteV9uYW1lMB4XDTE0MDcxNjE2MTEwMloX
DTE1MDcxNjE2MTEwMlowVTELMAkGA1UEBhMCVVMxETAPBgNVBAgTCElsbGlub2lz
MRAwDgYDVQQKEwdBcmdvbm5lMQ8wDQYDVQQLEwZ3YWdnbGUxEDAOBgNVBAMUB215
X25hbWUwggEiMA0GCSqGSIb3DQEBAQUAA4IBDwAwggEKAoIBAQC97B0SCwrpeOhf
CqbRXjbyjZqs4vcMN788MLVnZrZnH9hPwlLYC1n4hkExhgC6O4PY7kB7YVUA/3/Y
o1WMX3NOzXHwkToYKvJDqjiqEQ8JTrX4aIE2sqpMmlcwtBwx2KlG/e2HdeIUoYar
DIm837IyJ9V3KNFy2SRx6/ynJiIWff04rGEQMoFFfwYAEwVtVI5uMdFil00My/Vi
z8TRdZLzTXAEomGjskKVJXXnIx9mjFjIi0lvC1PgXW8MqkaCHl4VbGGkVlU1+qr4
sEeWnWkHJLeEzahlySLGQMpyFgh7ojaBUd4NzzB7SIuH0MW8dcPEzhZzk+H0FhUj
L09tD0SlAgMBAAGjgc8wgcwwHQYDVR0OBBYEFIZ+VYTkt29CZPZJ91XheO8eJucg
MIGFBgNVHSMEfjB8gBSGflWE5LdvQmT2SfdV4XjvHibnIKFZpFcwVTELMAkGA1UE
BhMCVVMxETAPBgNVBAgTCElsbGlub2lzMRAwDgYDVQQKEwdBcmdvbm5lMQ8wDQYD
VQQLEwZ3YWdnbGUxEDAOBgNVBAMUB215X25hbWWCCQDpkqJba++D8zAMBgNVHRME
BTADAQH/MBUGA1UdEQQOMAyBCm1lQGFyZ29ubmUwDQYJKoZIhvcNAQEFBQADggEB
AB0j3jrB0K/SBNbd3sm8eH8itLlvNlUGXTRbMYKY0tzHwtgZS7m+SNV0ydhdB/7l
qTM/YWsCDrwlsgKyOciRe29pBAkBGRO3iNNCnbl7Fi6Tvta4hmuC0HxaEckHOYw/
Y2GzIOPZjR3suJJc1J7rNvD3TPXbUjJvf5FVvr+Mj4yThByqE8xTL1Iyy8nUaV1K
0mZtE+bLanINHaIrVonC4G8Y8ywfjbZHCFA5epziaAuWd+8YKHFEhXyhi+lXX5Ng
KWnugb+7we1Sg0lUQZa0+lExUeA9SFH6hnxNdjFZH8/cCcF2iG/4F8xvBeJMIzbW
odUxwCAjBUDnr+OeAZByqwM=
-----END CERTIFICATE-----
